; Function Attrs: mustprogress nounwind uwtable
define dso_local void @_ZN4llvm8codeview24LazyRandomTypeCollectionC2ENS_9StringRefEj(ptr noundef nonnull align 8 dereferenceable(248) %0, ptr nocapture readnone %1, i64 %2, i32 noundef %3) unnamed_addr #0 align 2 {
  %5 = alloca %"class.llvm::VarStreamArray", align 8
  %6 = alloca %"class.llvm::FixedStreamArray", align 8
  call void @llvm.lifetime.start.p0(i64 56, ptr nonnull %5)
  call void @llvm.lifetime.start.p0(i64 48, ptr nonnull %6)
  call void @llvm.memset.p0.i64(ptr noundef nonnull align 8 dereferenceable(56) %5, i8 0, i64 56, i1 false)
  call void @llvm.memset.p0.i64(ptr noundef nonnull align 8 dereferenceable(48) %6, i8 0, i64 48, i1 false)
  call void @_ZN4llvm8codeview24LazyRandomTypeCollectionC2ERKNS_14VarStreamArrayINS0_8CVRecordINS0_12TypeLeafKindEEENS_23VarStreamArrayExtractorIS5_EEEEjNS_16FixedStreamArrayINS0_15TypeIndexOffsetEEE(ptr noundef nonnull align 8 dereferenceable(248) %0, ptr noundef nonnull align 8 dereferenceable(56) %5, i32 noundef %3, ptr noundef nonnull %6)
  call void @llvm.lifetime.end.p0(i64 56, ptr nonnull %5)
  call void @llvm.lifetime.end.p0(i64 48, ptr nonnull %6)
  ret void
}